target datalayout = "e-m:e-p270:32:32-p271:32:32-p272:64:64-i64:64-i128:128-f80:128-n8:16:32:64-S128"
target triple = "x86_64-pc-linux-gnu"

%struct._stat_tap_table_item_type = type { i32, %union.anon, %union.anon.2 }
%union.anon = type { ptr }
%union.anon.2 = type { ptr }
%struct._stat_tap_table = type { ptr, ptr, i32, i32, ptr }

; Function Attrs: null_pointer_is_valid sspstrong uwtable
define internal void @sip_stat_reset(ptr noundef %0) #0 {
  %2 = alloca ptr, align 8
  %3 = alloca i32, align 4
  %4 = alloca ptr, align 8
  store ptr %0, ptr %2, align 8
  call void @llvm.lifetime.start.p0(i64 4, ptr %3) #18
  call void @llvm.lifetime.start.p0(i64 8, ptr %4) #18
  store i32 0, ptr %3, align 4
  br label %5

5:                                                ; preds = %58, %1
  %6 = load i32, ptr %3, align 4
  %7 = load ptr, ptr %2, align 8
  %8 = getelementptr inbounds nuw %struct._stat_tap_table, ptr %7, i32 0, i32 3
  %9 = load i32, ptr %8, align 4
  %10 = icmp ult i32 %6, %9
  br i1 %10, label %11, label %61

11:                                               ; preds = %5
  %12 = load ptr, ptr %2, align 8
  %13 = load i32, ptr %3, align 4
  %14 = call ptr @stat_tap_get_field_data(ptr noundef %12, i32 noundef %13, i32 noundef 1)
  store ptr %14, ptr %4, align 8
  %15 = load ptr, ptr %4, align 8
  %16 = getelementptr inbounds nuw %struct._stat_tap_table_item_type, ptr %15, i32 0, i32 2
  store i32 0, ptr %16, align 8
  %17 = load ptr, ptr %4, align 8
  %18 = getelementptr inbounds nuw %struct._stat_tap_table_item_type, ptr %17, i32 0, i32 1
  store i32 0, ptr %18, align 8
  %19 = load ptr, ptr %2, align 8
  %20 = load i32, ptr %3, align 4
  %21 = load ptr, ptr %4, align 8
  call void @stat_tap_set_field_data(ptr noundef %19, i32 noundef %20, i32 noundef 1, ptr noundef %21)
  %22 = load ptr, ptr %2, align 8
  %23 = load i32, ptr %3, align 4
  %24 = call ptr @stat_tap_get_field_data(ptr noundef %22, i32 noundef %23, i32 noundef 2)
  store ptr %24, ptr %4, align 8
  %25 = load ptr, ptr %4, align 8
  %26 = getelementptr inbounds nuw %struct._stat_tap_table_item_type, ptr %25, i32 0, i32 1
  store i32 0, ptr %26, align 8
  %27 = load ptr, ptr %2, align 8
  %28 = load i32, ptr %3, align 4
  %29 = load ptr, ptr %4, align 8
  call void @stat_tap_set_field_data(ptr noundef %27, i32 noundef %28, i32 noundef 2, ptr noundef %29)
  %30 = load ptr, ptr %2, align 8
  %31 = load i32, ptr %3, align 4
  %32 = call ptr @stat_tap_get_field_data(ptr noundef %30, i32 noundef %31, i32 noundef 3)
  store ptr %32, ptr %4, align 8
  %33 = load ptr, ptr %4, align 8
  %34 = getelementptr inbounds nuw %struct._stat_tap_table_item_type, ptr %33, i32 0, i32 2
  store i32 0, ptr %34, align 8
  %35 = load ptr, ptr %4, align 8
  %36 = getelementptr inbounds nuw %struct._stat_tap_table_item_type, ptr %35, i32 0, i32 1
  store double 0.000000e+00, ptr %36, align 8
  %37 = load ptr, ptr %2, align 8
  %38 = load i32, ptr %3, align 4
  %39 = load ptr, ptr %4, align 8
  call void @stat_tap_set_field_data(ptr noundef %37, i32 noundef %38, i32 noundef 3, ptr noundef %39)
  %40 = load ptr, ptr %2, align 8
  %41 = load i32, ptr %3, align 4
  %42 = call ptr @stat_tap_get_field_data(ptr noundef %40, i32 noundef %41, i32 noundef 4)
  store ptr %42, ptr %4, align 8
  %43 = load ptr, ptr %4, align 8
  %44 = getelementptr inbounds nuw %struct._stat_tap_table_item_type, ptr %43, i32 0, i32 2
  store double 0.000000e+00, ptr %44, align 8
  %45 = load ptr, ptr %4, align 8
  %46 = getelementptr inbounds nuw %struct._stat_tap_table_item_type, ptr %45, i32 0, i32 1
  store double 0.000000e+00, ptr %46, align 8
  %47 = load ptr, ptr %2, align 8
  %48 = load i32, ptr %3, align 4
  %49 = load ptr, ptr %4, align 8
  call void @stat_tap_set_field_data(ptr noundef %47, i32 noundef %48, i32 noundef 4, ptr noundef %49)
  %50 = load ptr, ptr %2, align 8
  %51 = load i32, ptr %3, align 4
  %52 = call ptr @stat_tap_get_field_data(ptr noundef %50, i32 noundef %51, i32 noundef 5)
  store ptr %52, ptr %4, align 8
  %53 = load ptr, ptr %4, align 8
  %54 = getelementptr inbounds nuw %struct._stat_tap_table_item_type, ptr %53, i32 0, i32 1
  store double 0.000000e+00, ptr %54, align 8
  %55 = load ptr, ptr %2, align 8
  %56 = load i32, ptr %3, align 4
  %57 = load ptr, ptr %4, align 8
  call void @stat_tap_set_field_data(ptr noundef %55, i32 noundef %56, i32 noundef 5, ptr noundef %57)
  br label %58

58:                                               ; preds = %11
  %59 = load i32, ptr %3, align 4
  %60 = add i32 %59, 1
  store i32 %60, ptr %3, align 4
  br label %5, !llvm.loop !14

61:                                               ; preds = %5
  call void @llvm.lifetime.end.p0(i64 8, ptr %4) #18
  call void @llvm.lifetime.end.p0(i64 4, ptr %3) #18
  ret void
}