; Function Attrs: null_pointer_is_valid sspstrong uwtable
define internal void @sip_stat_reset(ptr noundef %0) #0 {
  %2 = getelementptr inbounds nuw i8, ptr %0, i64 20
  %3 = load i32, ptr %2, align 4
  %.not = icmp eq i32 %3, 0
  br i1 %.not, label %._crit_edge, label %.lr.ph

.lr.ph:                                           ; preds = %1, %.lr.ph
  %.035 = phi i32 [ %16, %.lr.ph ], [ 0, %1 ]
  %4 = tail call ptr @stat_tap_get_field_data(ptr noundef %0, i32 noundef %.035, i32 noundef 1)
  %5 = getelementptr inbounds nuw i8, ptr %4, i64 16
  store i32 0, ptr %5, align 8
  %6 = getelementptr inbounds nuw i8, ptr %4, i64 8
  store i32 0, ptr %6, align 8
  tail call void @stat_tap_set_field_data(ptr noundef %0, i32 noundef %.035, i32 noundef 1, ptr noundef %4)
  %7 = tail call ptr @stat_tap_get_field_data(ptr noundef %0, i32 noundef %.035, i32 noundef 2)
  %8 = getelementptr inbounds nuw i8, ptr %7, i64 8
  store i32 0, ptr %8, align 8
  tail call void @stat_tap_set_field_data(ptr noundef %0, i32 noundef %.035, i32 noundef 2, ptr noundef %7)
  %9 = tail call ptr @stat_tap_get_field_data(ptr noundef %0, i32 noundef %.035, i32 noundef 3)
  %10 = getelementptr inbounds nuw i8, ptr %9, i64 16
  store i32 0, ptr %10, align 8
  %11 = getelementptr inbounds nuw i8, ptr %9, i64 8
  store double 0.000000e+00, ptr %11, align 8
  tail call void @stat_tap_set_field_data(ptr noundef %0, i32 noundef %.035, i32 noundef 3, ptr noundef %9)
  %12 = tail call ptr @stat_tap_get_field_data(ptr noundef %0, i32 noundef %.035, i32 noundef 4)
  %13 = getelementptr inbounds nuw i8, ptr %12, i64 8
  tail call void @llvm.memset.p0.i64(ptr noundef nonnull align 8 dereferenceable(16) %13, i8 0, i64 16, i1 false)
  tail call void @stat_tap_set_field_data(ptr noundef %0, i32 noundef %.035, i32 noundef 4, ptr noundef %12)
  %14 = tail call ptr @stat_tap_get_field_data(ptr noundef %0, i32 noundef %.035, i32 noundef 5)
  %15 = getelementptr inbounds nuw i8, ptr %14, i64 8
  store double 0.000000e+00, ptr %15, align 8
  tail call void @stat_tap_set_field_data(ptr noundef %0, i32 noundef %.035, i32 noundef 5, ptr noundef %14)
  %16 = add nuw i32 %.035, 1
  %17 = load i32, ptr %2, align 4
  %18 = icmp ult i32 %16, %17
  br i1 %18, label %.lr.ph, label %._crit_edge, !llvm.loop !14

._crit_edge:                                      ; preds = %.lr.ph, %1
  ret void
}